target datalayout = "e-m:e-p270:32:32-p271:32:32-p272:64:64-i64:64-i128:128-f80:128-n8:16:32:64-S128"
target triple = "x86_64-pc-linux-gnu"

%struct._zval_struct = type { %union._zend_value, %union.anon, %union.anon.2 }
%union._zend_value = type { i64 }
%union.anon = type { i32 }
%union.anon.2 = type { i32 }
%struct._zend_execute_data = type { ptr, ptr, ptr, ptr, %struct._zval_struct, ptr, ptr, ptr, ptr }

; Function Attrs: nounwind uwtable
define hidden void @zif_ceil(ptr noundef %0, ptr noundef %1) #0 {
  %3 = alloca ptr, align 8
  %4 = alloca ptr, align 8
  %5 = alloca ptr, align 8
  %6 = alloca ptr, align 8
  %7 = alloca ptr, align 8
  %8 = alloca ptr, align 8
  %9 = alloca i1, align 1
  %10 = alloca ptr, align 8
  %11 = alloca ptr, align 8
  %12 = alloca i8, align 1
  %13 = alloca i32, align 4
  %14 = alloca ptr, align 8
  %15 = alloca ptr, align 8
  %16 = alloca ptr, align 8
  %17 = alloca i32, align 4
  %18 = alloca i32, align 4
  %19 = alloca i32, align 4
  %20 = alloca i32, align 4
  %21 = alloca i32, align 4
  %22 = alloca ptr, align 8
  %23 = alloca ptr, align 8
  %24 = alloca i32, align 4
  %25 = alloca ptr, align 8
  %26 = alloca i8, align 1
  %27 = alloca i8, align 1
  %28 = alloca i32, align 4
  %29 = alloca ptr, align 8
  %30 = alloca ptr, align 8
  store ptr %0, ptr %14, align 8
  store ptr %1, ptr %15, align 8
  br label %31

31:                                               ; preds = %2
  store i32 0, ptr %17, align 4
  store i32 1, ptr %18, align 4
  store i32 1, ptr %19, align 4
  %32 = load ptr, ptr %14, align 8
  %33 = getelementptr inbounds %struct._zend_execute_data, ptr %32, i32 0, i32 4
  %34 = getelementptr inbounds %struct._zval_struct, ptr %33, i32 0, i32 2
  %35 = load i32, ptr %34, align 4
  store i32 %35, ptr %20, align 4
  store i32 0, ptr %21, align 4
  store ptr null, ptr %23, align 8
  store i32 0, ptr %24, align 4
  store ptr null, ptr %25, align 8
  store i8 0, ptr %26, align 1
  store i8 0, ptr %27, align 1
  store i32 0, ptr %28, align 4
  br label %36

36:                                               ; preds = %31
  %37 = load i32, ptr %20, align 4
  %38 = load i32, ptr %18, align 4
  %39 = icmp ult i32 %37, %38
  %40 = xor i1 %39, true
  %41 = xor i1 %40, true
  %42 = zext i1 %41 to i32
  %43 = sext i32 %42 to i64
  %44 = icmp ne i64 %43, 0
  br i1 %44, label %54, label %45

45:                                               ; preds = %36
  %46 = load i32, ptr %20, align 4
  %47 = load i32, ptr %19, align 4
  %48 = icmp ugt i32 %46, %47
  %49 = xor i1 %48, true
  %50 = xor i1 %49, true
  %51 = zext i1 %50 to i32
  %52 = sext i32 %51 to i64
  %53 = icmp ne i64 %52, 0
  br i1 %53, label %54, label %57

54:                                               ; preds = %45, %36
  %55 = load i32, ptr %18, align 4
  %56 = load i32, ptr %19, align 4
  call void @zend_wrong_parameters_count_error(i32 noundef %55, i32 noundef %56)
  store i32 1, ptr %28, align 4
  br label %155

57:                                               ; preds = %45
  %58 = load ptr, ptr %14, align 8
  %59 = getelementptr inbounds %struct._zval_struct, ptr %58, i64 4
  store ptr %59, ptr %22, align 8
  %60 = load i32, ptr %21, align 4
  %61 = add i32 %60, 1
  store i32 %61, ptr %21, align 4
  %62 = load i32, ptr %21, align 4
  %63 = load i32, ptr %18, align 4
  %64 = icmp ule i32 %62, %63
  br i1 %64, label %70, label %65

65:                                               ; preds = %57
  %66 = load i8, ptr %27, align 1
  %67 = trunc i8 %66 to i1
  %68 = zext i1 %67 to i32
  %69 = icmp eq i32 %68, 1
  br label %70

70:                                               ; preds = %65, %57
  %71 = phi i1 [ true, %57 ], [ %69, %65 ]
  call void @llvm.assume(i1 %71)
  %72 = load i32, ptr %21, align 4
  %73 = load i32, ptr %18, align 4
  %74 = icmp ugt i32 %72, %73
  br i1 %74, label %80, label %75

75:                                               ; preds = %70
  %76 = load i8, ptr %27, align 1
  %77 = trunc i8 %76 to i1
  %78 = zext i1 %77 to i32
  %79 = icmp eq i32 %78, 0
  br label %80

80:                                               ; preds = %75, %70
  %81 = phi i1 [ true, %70 ], [ %79, %75 ]
  call void @llvm.assume(i1 %81)
  %82 = load i8, ptr %27, align 1
  %83 = trunc i8 %82 to i1
  br i1 %83, label %84, label %95

84:                                               ; preds = %80
  %85 = load i32, ptr %21, align 4
  %86 = load i32, ptr %20, align 4
  %87 = icmp ugt i32 %85, %86
  %88 = xor i1 %87, true
  %89 = xor i1 %88, true
  %90 = zext i1 %89 to i32
  %91 = sext i32 %90 to i64
  %92 = icmp ne i64 %91, 0
  br i1 %92, label %93, label %94

93:                                               ; preds = %84
  br label %155

94:                                               ; preds = %84
  br label %95

95:                                               ; preds = %94, %80
  %96 = load ptr, ptr %22, align 8
  %97 = getelementptr inbounds %struct._zval_struct, ptr %96, i32 1
  store ptr %97, ptr %22, align 8
  %98 = load ptr, ptr %22, align 8
  store ptr %98, ptr %23, align 8
  %99 = load ptr, ptr %23, align 8
  %100 = load i32, ptr %21, align 4
  store ptr %99, ptr %10, align 8
  store ptr %16, ptr %11, align 8
  store i8 0, ptr %12, align 1
  store i32 %100, ptr %13, align 4
  %101 = load ptr, ptr %10, align 8
  store ptr %101, ptr %6, align 8
  %102 = load ptr, ptr %6, align 8
  %103 = getelementptr inbounds %struct._zval_struct, ptr %102, i32 0, i32 1
  %104 = load i8, ptr %103, align 8
  %105 = zext i8 %104 to i32
  %106 = icmp eq i32 %105, 4
  br i1 %106, label %114, label %107

107:                                              ; preds = %95
  %108 = load ptr, ptr %10, align 8
  store ptr %108, ptr %7, align 8
  %109 = load ptr, ptr %7, align 8
  %110 = getelementptr inbounds %struct._zval_struct, ptr %109, i32 0, i32 1
  %111 = load i8, ptr %110, align 8
  %112 = zext i8 %111 to i32
  %113 = icmp eq i32 %112, 5
  br label %114

114:                                              ; preds = %107, %95
  %115 = phi i1 [ true, %95 ], [ %113, %107 ]
  br i1 %115, label %116, label %119

116:                                              ; preds = %114
  %117 = load ptr, ptr %10, align 8
  %118 = load ptr, ptr %11, align 8
  store ptr %117, ptr %118, align 8
  br label %136

119:                                              ; preds = %114
  %120 = load i8, ptr %12, align 1
  %121 = trunc i8 %120 to i1
  br i1 %121, label %122, label %131

122:                                              ; preds = %119
  %123 = load ptr, ptr %10, align 8
  store ptr %123, ptr %8, align 8
  %124 = load ptr, ptr %8, align 8
  %125 = getelementptr inbounds %struct._zval_struct, ptr %124, i32 0, i32 1
  %126 = load i8, ptr %125, align 8
  %127 = zext i8 %126 to i32
  %128 = icmp eq i32 %127, 1
  br i1 %128, label %129, label %131

129:                                              ; preds = %122
  %130 = load ptr, ptr %11, align 8
  store ptr null, ptr %130, align 8
  br label %136

131:                                              ; preds = %122, %119
  %132 = load ptr, ptr %10, align 8
  %133 = load ptr, ptr %11, align 8
  %134 = load i32, ptr %13, align 4
  %135 = call zeroext i1 @zend_parse_arg_number_slow(ptr noundef %132, ptr noundef %133, i32 noundef %134) #12
  store i1 %135, ptr %9, align 1
  br label %137

136:                                              ; preds = %129, %116
  store i1 true, ptr %9, align 1
  br label %137

137:                                              ; preds = %136, %131
  %138 = load i1, ptr %9, align 1
  %139 = xor i1 %138, true
  %140 = xor i1 %139, true
  %141 = xor i1 %140, true
  %142 = zext i1 %141 to i32
  %143 = sext i32 %142 to i64
  %144 = icmp ne i64 %143, 0
  br i1 %144, label %145, label %146

145:                                              ; preds = %137
  store i32 22, ptr %24, align 4
  store i32 9, ptr %28, align 4
  br label %155

146:                                              ; preds = %137
  %147 = load i32, ptr %21, align 4
  %148 = load i32, ptr %19, align 4
  %149 = icmp eq i32 %147, %148
  br i1 %149, label %153, label %150

150:                                              ; preds = %146
  %151 = load i32, ptr %19, align 4
  %152 = icmp eq i32 %151, -1
  br label %153

153:                                              ; preds = %150, %146
  %154 = phi i1 [ true, %146 ], [ %152, %150 ]
  call void @llvm.assume(i1 %154)
  br label %155

155:                                              ; preds = %153, %145, %93, %54
  %156 = load i32, ptr %28, align 4
  %157 = icmp ne i32 %156, 0
  %158 = xor i1 %157, true
  %159 = xor i1 %158, true
  %160 = zext i1 %159 to i32
  %161 = sext i32 %160 to i64
  %162 = icmp ne i64 %161, 0
  br i1 %162, label %163, label %169

163:                                              ; preds = %155
  %164 = load i32, ptr %28, align 4
  %165 = load i32, ptr %21, align 4
  %166 = load ptr, ptr %25, align 8
  %167 = load i32, ptr %24, align 4
  %168 = load ptr, ptr %23, align 8
  call void @zend_wrong_parameter_error(i32 noundef %164, i32 noundef %165, ptr noundef %166, i32 noundef %167, ptr noundef %168)
  br label %216

169:                                              ; preds = %155
  br label %170

170:                                              ; preds = %169
  %171 = load ptr, ptr %16, align 8
  store ptr %171, ptr %5, align 8
  %172 = load ptr, ptr %5, align 8
  %173 = getelementptr inbounds %struct._zval_struct, ptr %172, i32 0, i32 1
  %174 = load i8, ptr %173, align 8
  %175 = zext i8 %174 to i32
  switch i32 %175, label %215 [
    i32 4, label %176
    i32 5, label %201
  ]

176:                                              ; preds = %170
  br label %177

177:                                              ; preds = %176
  br label %178

178:                                              ; preds = %177
  %179 = load ptr, ptr %15, align 8
  store ptr %179, ptr %29, align 8
  %180 = load ptr, ptr %16, align 8
  store ptr %180, ptr %4, align 8
  %181 = load ptr, ptr %4, align 8
  store ptr %181, ptr %3, align 8
  %182 = load ptr, ptr %3, align 8
  %183 = getelementptr inbounds %struct._zval_struct, ptr %182, i32 0, i32 1
  %184 = load i8, ptr %183, align 8
  %185 = zext i8 %184 to i32
  %186 = icmp eq i32 %185, 5
  br i1 %186, label %187, label %190

187:                                              ; preds = %178
  %188 = load ptr, ptr %4, align 8
  %189 = load double, ptr %188, align 8
  br label %193

190:                                              ; preds = %178
  %191 = load ptr, ptr %4, align 8
  %192 = call double @zval_get_double_func(ptr noundef %191) #12
  br label %193

193:                                              ; preds = %190, %187
  %194 = phi double [ %189, %187 ], [ %192, %190 ]
  %195 = load ptr, ptr %29, align 8
  %196 = getelementptr inbounds %struct._zval_struct, ptr %195, i32 0, i32 0
  store double %194, ptr %196, align 8
  %197 = load ptr, ptr %29, align 8
  %198 = getelementptr inbounds %struct._zval_struct, ptr %197, i32 0, i32 1
  store i32 5, ptr %198, align 8
  br label %199

199:                                              ; preds = %193
  br label %216

200:                                              ; No predecessors!
  br label %201

201:                                              ; preds = %200, %170
  br label %202

202:                                              ; preds = %201
  br label %203

203:                                              ; preds = %202
  %204 = load ptr, ptr %15, align 8
  store ptr %204, ptr %30, align 8
  %205 = load ptr, ptr %16, align 8
  %206 = getelementptr inbounds %struct._zval_struct, ptr %205, i32 0, i32 0
  %207 = load double, ptr %206, align 8
  %208 = call double @llvm.ceil.f64(double %207)
  %209 = load ptr, ptr %30, align 8
  %210 = getelementptr inbounds %struct._zval_struct, ptr %209, i32 0, i32 0
  store double %208, ptr %210, align 8
  %211 = load ptr, ptr %30, align 8
  %212 = getelementptr inbounds %struct._zval_struct, ptr %211, i32 0, i32 1
  store i32 5, ptr %212, align 8
  br label %213

213:                                              ; preds = %203
  br label %216

214:                                              ; No predecessors!
  br label %215

215:                                              ; preds = %214, %170
  unreachable

216:                                              ; preds = %213, %199, %163
  ret void
}