; Function Attrs: nounwind uwtable
define hidden void @zif_ceil(ptr noundef %0, ptr nocapture noundef writeonly %1) local_unnamed_addr #0 {
  %3 = alloca ptr, align 8
  %4 = getelementptr inbounds i8, ptr %0, i64 44
  %5 = load i32, ptr %4, align 4
  %cond = icmp eq i32 %5, 1
  br i1 %cond, label %7, label %6

6:                                                ; preds = %2
  tail call void @zend_wrong_parameters_count_error(i32 noundef 1, i32 noundef 1) #15
  br label %.thread89

7:                                                ; preds = %2
  %8 = getelementptr inbounds i8, ptr %0, i64 80
  %9 = getelementptr inbounds i8, ptr %0, i64 88
  %10 = load i8, ptr %9, align 8
  %11 = and i8 %10, -2
  %switch66 = icmp eq i8 %11, 4
  br i1 %switch66, label %.thread78, label %12

.thread78:                                        ; preds = %7
  store ptr %8, ptr %3, align 8
  br label %.thread82

12:                                               ; preds = %7
  %13 = call zeroext i1 @zend_parse_arg_number_slow(ptr noundef nonnull %8, ptr noundef nonnull %3, i32 noundef 1) #15
  %.fr = freeze i1 %13
  br i1 %.fr, label %..thread82_crit_edge, label %.thread89

..thread82_crit_edge:                             ; preds = %12
  %.pre = load ptr, ptr %3, align 8
  br label %.thread82

.thread89:                                        ; preds = %12, %6
  %.05598 = phi i32 [ 0, %6 ], [ 1, %12 ]
  %.05697 = phi i32 [ 1, %6 ], [ 9, %12 ]
  %.05796 = phi ptr [ null, %6 ], [ %8, %12 ]
  %.05895 = phi i32 [ 0, %6 ], [ 22, %12 ]
  call void @zend_wrong_parameter_error(i32 noundef %.05697, i32 noundef %.05598, ptr noundef null, i32 noundef %.05895, ptr noundef %.05796) #15
  br label %24

.thread82:                                        ; preds = %..thread82_crit_edge, %.thread78
  %14 = phi ptr [ %.pre, %..thread82_crit_edge ], [ %8, %.thread78 ]
  %15 = getelementptr inbounds i8, ptr %14, i64 8
  %16 = load i8, ptr %15, align 8
  %switch = icmp eq i8 %16, 4
  br i1 %switch, label %17, label %20

17:                                               ; preds = %.thread82
  %18 = call double @zval_get_double_func(ptr noundef nonnull %14) #15
  store double %18, ptr %1, align 8
  %19 = getelementptr inbounds i8, ptr %1, i64 8
  store i32 5, ptr %19, align 8
  br label %24

20:                                               ; preds = %.thread82
  %21 = load double, ptr %14, align 8
  %22 = call double @llvm.ceil.f64(double %21)
  store double %22, ptr %1, align 8
  %23 = getelementptr inbounds i8, ptr %1, i64 8
  store i32 5, ptr %23, align 8
  br label %24

24:                                               ; preds = %20, %17, %.thread89
  ret void
}